target datalayout = "e-m:e-p270:32:32-p271:32:32-p272:64:64-i64:64-i128:128-f80:128-n8:16:32:64-S128"
target triple = "x86_64-pc-linux-gnu"

%struct.ocsp_request_st = type { %struct.ocsp_req_info_st, ptr }
%struct.ocsp_req_info_st = type { ptr, ptr, ptr, ptr }
%struct.ocsp_one_request_st = type { ptr, ptr }
%struct.ocsp_signature_st = type { %struct.X509_algor_st, ptr, ptr }
%struct.X509_algor_st = type { ptr, ptr }

@.str.19 = private unnamed_addr constant [20 x i8] c"OCSP Request Data:\0A\00", align 1
@.str.20 = private unnamed_addr constant [25 x i8] c"    Version: %lu (0x%lx)\00", align 1
@.str.21 = private unnamed_addr constant [22 x i8] c"\0A    Requestor Name: \00", align 1
@.str.22 = private unnamed_addr constant [22 x i8] c"\0A    Requestor List:\0A\00", align 1
@.str.23 = private unnamed_addr constant [26 x i8] c"Request Single Extensions\00", align 1
@.str.24 = private unnamed_addr constant [19 x i8] c"Request Extensions\00", align 1

; Function Attrs: inlinehint nounwind uwtable
define internal ptr @ossl_check_const_X509_sk_type(ptr noundef %0) #3 {
  %2 = alloca ptr, align 8
  store ptr %0, ptr %2, align 8, !tbaa !56
  %3 = load ptr, ptr %2, align 8, !tbaa !56
  ret ptr %3
}

; Function Attrs: inlinehint nounwind uwtable
define internal ptr @ossl_check_const_OCSP_ONEREQ_sk_type(ptr noundef %0) #3 {
  %2 = alloca ptr, align 8
  store ptr %0, ptr %2, align 8, !tbaa !52
  %3 = load ptr, ptr %2, align 8, !tbaa !52
  ret ptr %3
}

; Function Attrs: nounwind uwtable
define i32 @OCSP_REQUEST_print(ptr noundef %0, ptr noundef %1, i64 noundef %2) #0 {
  %4 = alloca i32, align 4
  %5 = alloca ptr, align 8
  %6 = alloca ptr, align 8
  %7 = alloca i64, align 8
  %8 = alloca i32, align 4
  %9 = alloca i64, align 8
  %10 = alloca ptr, align 8
  %11 = alloca ptr, align 8
  %12 = alloca ptr, align 8
  %13 = alloca ptr, align 8
  %14 = alloca i32, align 4
  store ptr %0, ptr %5, align 8, !tbaa !15
  store ptr %1, ptr %6, align 8, !tbaa !17
  store i64 %2, ptr %7, align 8, !tbaa !3
  call void @llvm.lifetime.start.p0(i64 4, ptr %8) #4
  call void @llvm.lifetime.start.p0(i64 8, ptr %9) #4
  call void @llvm.lifetime.start.p0(i64 8, ptr %10) #4
  store ptr null, ptr %10, align 8, !tbaa !19
  call void @llvm.lifetime.start.p0(i64 8, ptr %11) #4
  store ptr null, ptr %11, align 8, !tbaa !21
  call void @llvm.lifetime.start.p0(i64 8, ptr %12) #4
  %15 = load ptr, ptr %6, align 8, !tbaa !17
  %16 = getelementptr inbounds nuw %struct.ocsp_request_st, ptr %15, i32 0, i32 0
  store ptr %16, ptr %12, align 8, !tbaa !23
  call void @llvm.lifetime.start.p0(i64 8, ptr %13) #4
  %17 = load ptr, ptr %6, align 8, !tbaa !17
  %18 = getelementptr inbounds nuw %struct.ocsp_request_st, ptr %17, i32 0, i32 1
  %19 = load ptr, ptr %18, align 8, !tbaa !25
  store ptr %19, ptr %13, align 8, !tbaa !33
  %20 = load ptr, ptr %5, align 8, !tbaa !15
  %21 = call i32 @BIO_write(ptr noundef %20, ptr noundef @.str.19, i32 noundef 19)
  %22 = icmp sle i32 %21, 0
  br i1 %22, label %23, label %24

23:                                               ; preds = %3
  br label %141

24:                                               ; preds = %3
  %25 = load ptr, ptr %12, align 8, !tbaa !23
  %26 = getelementptr inbounds nuw %struct.ocsp_req_info_st, ptr %25, i32 0, i32 0
  %27 = load ptr, ptr %26, align 8, !tbaa !34
  %28 = call i64 @ASN1_INTEGER_get(ptr noundef %27)
  store i64 %28, ptr %9, align 8, !tbaa !3
  %29 = load ptr, ptr %5, align 8, !tbaa !15
  %30 = load i64, ptr %9, align 8, !tbaa !3
  %31 = add nsw i64 %30, 1
  %32 = load i64, ptr %9, align 8, !tbaa !3
  %33 = call i32 (ptr, ptr, ...) @BIO_printf(ptr noundef %29, ptr noundef @.str.20, i64 noundef %31, i64 noundef %32)
  %34 = icmp sle i32 %33, 0
  br i1 %34, label %35, label %36

35:                                               ; preds = %24
  br label %141

36:                                               ; preds = %24
  %37 = load ptr, ptr %12, align 8, !tbaa !23
  %38 = getelementptr inbounds nuw %struct.ocsp_req_info_st, ptr %37, i32 0, i32 1
  %39 = load ptr, ptr %38, align 8, !tbaa !35
  %40 = icmp ne ptr %39, null
  br i1 %40, label %41, label %52

41:                                               ; preds = %36
  %42 = load ptr, ptr %5, align 8, !tbaa !15
  %43 = call i32 @BIO_write(ptr noundef %42, ptr noundef @.str.21, i32 noundef 21)
  %44 = icmp sle i32 %43, 0
  br i1 %44, label %45, label %46

45:                                               ; preds = %41
  br label %141

46:                                               ; preds = %41
  %47 = load ptr, ptr %5, align 8, !tbaa !15
  %48 = load ptr, ptr %12, align 8, !tbaa !23
  %49 = getelementptr inbounds nuw %struct.ocsp_req_info_st, ptr %48, i32 0, i32 1
  %50 = load ptr, ptr %49, align 8, !tbaa !35
  %51 = call i32 @GENERAL_NAME_print(ptr noundef %47, ptr noundef %50)
  br label %52

52:                                               ; preds = %46, %36
  %53 = load ptr, ptr %5, align 8, !tbaa !15
  %54 = call i32 @BIO_write(ptr noundef %53, ptr noundef @.str.22, i32 noundef 21)
  %55 = icmp sle i32 %54, 0
  br i1 %55, label %56, label %57

56:                                               ; preds = %52
  br label %141

57:                                               ; preds = %52
  store i32 0, ptr %8, align 4, !tbaa !36
  br label %58

58:                                               ; preds = %88, %57
  %59 = load i32, ptr %8, align 4, !tbaa !36
  %60 = load ptr, ptr %12, align 8, !tbaa !23
  %61 = getelementptr inbounds nuw %struct.ocsp_req_info_st, ptr %60, i32 0, i32 2
  %62 = load ptr, ptr %61, align 8, !tbaa !38
  %63 = call ptr @ossl_check_const_OCSP_ONEREQ_sk_type(ptr noundef %62)
  %64 = call i32 @OPENSSL_sk_num(ptr noundef %63)
  %65 = icmp slt i32 %59, %64
  br i1 %65, label %66, label %91

66:                                               ; preds = %58
  %67 = load ptr, ptr %12, align 8, !tbaa !23
  %68 = getelementptr inbounds nuw %struct.ocsp_req_info_st, ptr %67, i32 0, i32 2
  %69 = load ptr, ptr %68, align 8, !tbaa !38
  %70 = call ptr @ossl_check_const_OCSP_ONEREQ_sk_type(ptr noundef %69)
  %71 = load i32, ptr %8, align 4, !tbaa !36
  %72 = call ptr @OPENSSL_sk_value(ptr noundef %70, i32 noundef %71)
  store ptr %72, ptr %11, align 8, !tbaa !21
  %73 = load ptr, ptr %11, align 8, !tbaa !21
  %74 = getelementptr inbounds nuw %struct.ocsp_one_request_st, ptr %73, i32 0, i32 0
  %75 = load ptr, ptr %74, align 8, !tbaa !39
  store ptr %75, ptr %10, align 8, !tbaa !19
  %76 = load ptr, ptr %5, align 8, !tbaa !15
  %77 = load ptr, ptr %10, align 8, !tbaa !19
  %78 = call i32 @ocsp_certid_print(ptr noundef %76, ptr noundef %77, i32 noundef 8)
  %79 = load ptr, ptr %5, align 8, !tbaa !15
  %80 = load ptr, ptr %11, align 8, !tbaa !21
  %81 = getelementptr inbounds nuw %struct.ocsp_one_request_st, ptr %80, i32 0, i32 1
  %82 = load ptr, ptr %81, align 8, !tbaa !41
  %83 = load i64, ptr %7, align 8, !tbaa !3
  %84 = call i32 @X509V3_extensions_print(ptr noundef %79, ptr noundef @.str.23, ptr noundef %82, i64 noundef %83, i32 noundef 8)
  %85 = icmp ne i32 %84, 0
  br i1 %85, label %87, label %86

86:                                               ; preds = %66
  br label %141

87:                                               ; preds = %66
  br label %88

88:                                               ; preds = %87
  %89 = load i32, ptr %8, align 4, !tbaa !36
  %90 = add nsw i32 %89, 1
  store i32 %90, ptr %8, align 4, !tbaa !36
  br label %58, !llvm.loop !42

91:                                               ; preds = %58
  %92 = load ptr, ptr %5, align 8, !tbaa !15
  %93 = load ptr, ptr %12, align 8, !tbaa !23
  %94 = getelementptr inbounds nuw %struct.ocsp_req_info_st, ptr %93, i32 0, i32 3
  %95 = load ptr, ptr %94, align 8, !tbaa !43
  %96 = load i64, ptr %7, align 8, !tbaa !3
  %97 = call i32 @X509V3_extensions_print(ptr noundef %92, ptr noundef @.str.24, ptr noundef %95, i64 noundef %96, i32 noundef 4)
  %98 = icmp ne i32 %97, 0
  br i1 %98, label %100, label %99

99:                                               ; preds = %91
  br label %141

100:                                              ; preds = %91
  %101 = load ptr, ptr %13, align 8, !tbaa !33
  %102 = icmp ne ptr %101, null
  br i1 %102, label %103, label %140

103:                                              ; preds = %100
  %104 = load ptr, ptr %5, align 8, !tbaa !15
  %105 = load ptr, ptr %13, align 8, !tbaa !33
  %106 = getelementptr inbounds nuw %struct.ocsp_signature_st, ptr %105, i32 0, i32 0
  %107 = load ptr, ptr %13, align 8, !tbaa !33
  %108 = getelementptr inbounds nuw %struct.ocsp_signature_st, ptr %107, i32 0, i32 1
  %109 = load ptr, ptr %108, align 8, !tbaa !44
  %110 = call i32 @X509_signature_print(ptr noundef %104, ptr noundef %106, ptr noundef %109)
  store i32 0, ptr %8, align 4, !tbaa !36
  br label %111

111:                                              ; preds = %136, %103
  %112 = load i32, ptr %8, align 4, !tbaa !36
  %113 = load ptr, ptr %13, align 8, !tbaa !33
  %114 = getelementptr inbounds nuw %struct.ocsp_signature_st, ptr %113, i32 0, i32 2
  %115 = load ptr, ptr %114, align 8, !tbaa !50
  %116 = call ptr @ossl_check_const_X509_sk_type(ptr noundef %115)
  %117 = call i32 @OPENSSL_sk_num(ptr noundef %116)
  %118 = icmp slt i32 %112, %117
  br i1 %118, label %119, label %139

119:                                              ; preds = %111
  %120 = load ptr, ptr %5, align 8, !tbaa !15
  %121 = load ptr, ptr %13, align 8, !tbaa !33
  %122 = getelementptr inbounds nuw %struct.ocsp_signature_st, ptr %121, i32 0, i32 2
  %123 = load ptr, ptr %122, align 8, !tbaa !50
  %124 = call ptr @ossl_check_const_X509_sk_type(ptr noundef %123)
  %125 = load i32, ptr %8, align 4, !tbaa !36
  %126 = call ptr @OPENSSL_sk_value(ptr noundef %124, i32 noundef %125)
  %127 = call i32 @X509_print(ptr noundef %120, ptr noundef %126)
  %128 = load ptr, ptr %5, align 8, !tbaa !15
  %129 = load ptr, ptr %13, align 8, !tbaa !33
  %130 = getelementptr inbounds nuw %struct.ocsp_signature_st, ptr %129, i32 0, i32 2
  %131 = load ptr, ptr %130, align 8, !tbaa !50
  %132 = call ptr @ossl_check_const_X509_sk_type(ptr noundef %131)
  %133 = load i32, ptr %8, align 4, !tbaa !36
  %134 = call ptr @OPENSSL_sk_value(ptr noundef %132, i32 noundef %133)
  %135 = call i32 @PEM_write_bio_X509(ptr noundef %128, ptr noundef %134)
  br label %136

136:                                              ; preds = %119
  %137 = load i32, ptr %8, align 4, !tbaa !36
  %138 = add nsw i32 %137, 1
  store i32 %138, ptr %8, align 4, !tbaa !36
  br label %111, !llvm.loop !51

139:                                              ; preds = %111
  br label %140

140:                                              ; preds = %139, %100
  store i32 1, ptr %4, align 4
  store i32 1, ptr %14, align 4
  br label %142

141:                                              ; preds = %99, %86, %56, %45, %35, %23
  store i32 0, ptr %4, align 4
  store i32 1, ptr %14, align 4
  br label %142

142:                                              ; preds = %141, %140
  call void @llvm.lifetime.end.p0(i64 8, ptr %13) #4
  call void @llvm.lifetime.end.p0(i64 8, ptr %12) #4
  call void @llvm.lifetime.end.p0(i64 8, ptr %11) #4
  call void @llvm.lifetime.end.p0(i64 8, ptr %10) #4
  call void @llvm.lifetime.end.p0(i64 8, ptr %9) #4
  call void @llvm.lifetime.end.p0(i64 4, ptr %8) #4
  %143 = load i32, ptr %4, align 4
  ret i32 %143
}