; Function Attrs: nounwind uwtable
define range(i32 0, 2) i32 @OCSP_REQUEST_print(ptr noundef %0, ptr noundef readonly captures(none) %1, i64 noundef %2) local_unnamed_addr #1 {
  %4 = getelementptr inbounds nuw i8, ptr %1, i64 32
  %5 = load ptr, ptr %4, align 8, !tbaa !13
  %6 = tail call i32 @BIO_write(ptr noundef %0, ptr noundef nonnull @.str.19, i32 noundef 19) #3
  %7 = icmp slt i32 %6, 1
  br i1 %7, label %.loopexit, label %8

8:                                                ; preds = %3
  %9 = load ptr, ptr %1, align 8, !tbaa !21
  %10 = tail call i64 @ASN1_INTEGER_get(ptr noundef %9) #3
  %11 = add nsw i64 %10, 1
  %12 = tail call i32 (ptr, ptr, ...) @BIO_printf(ptr noundef %0, ptr noundef nonnull @.str.20, i64 noundef %11, i64 noundef %10) #3
  %13 = icmp slt i32 %12, 1
  br i1 %13, label %.loopexit, label %14

14:                                               ; preds = %8
  %15 = getelementptr inbounds nuw i8, ptr %1, i64 8
  %16 = load ptr, ptr %15, align 8, !tbaa !22
  %.not = icmp eq ptr %16, null
  br i1 %.not, label %23, label %17

17:                                               ; preds = %14
  %18 = tail call i32 @BIO_write(ptr noundef %0, ptr noundef nonnull @.str.21, i32 noundef 21) #3
  %19 = icmp slt i32 %18, 1
  br i1 %19, label %.loopexit, label %20

20:                                               ; preds = %17
  %21 = load ptr, ptr %15, align 8, !tbaa !22
  %22 = tail call i32 @GENERAL_NAME_print(ptr noundef %0, ptr noundef %21) #3
  br label %23

23:                                               ; preds = %20, %14
  %24 = tail call i32 @BIO_write(ptr noundef %0, ptr noundef nonnull @.str.22, i32 noundef 21) #3
  %25 = icmp slt i32 %24, 1
  br i1 %25, label %.loopexit, label %.preheader

.preheader:                                       ; preds = %23
  %26 = getelementptr inbounds nuw i8, ptr %1, i64 16
  %27 = load ptr, ptr %26, align 8, !tbaa !23
  %28 = tail call i32 @OPENSSL_sk_num(ptr noundef %27) #3
  %29 = icmp sgt i32 %28, 0
  br i1 %29, label %.lr.ph, label %._crit_edge

30:                                               ; preds = %.lr.ph
  %31 = add nuw nsw i32 %.03945, 1
  %32 = load ptr, ptr %26, align 8, !tbaa !23
  %33 = tail call i32 @OPENSSL_sk_num(ptr noundef %32) #3
  %34 = icmp slt i32 %31, %33
  br i1 %34, label %.lr.ph, label %._crit_edge, !llvm.loop !24

.lr.ph:                                           ; preds = %.preheader, %30
  %.03945 = phi i32 [ %31, %30 ], [ 0, %.preheader ]
  %35 = load ptr, ptr %26, align 8, !tbaa !23
  %36 = tail call ptr @OPENSSL_sk_value(ptr noundef %35, i32 noundef %.03945) #3
  %37 = load ptr, ptr %36, align 8, !tbaa !25
  tail call fastcc void @ocsp_certid_print(ptr noundef %0, ptr noundef %37, i32 noundef 8)
  %38 = getelementptr inbounds nuw i8, ptr %36, i64 8
  %39 = load ptr, ptr %38, align 8, !tbaa !28
  %40 = tail call i32 @X509V3_extensions_print(ptr noundef %0, ptr noundef nonnull @.str.23, ptr noundef %39, i64 noundef %2, i32 noundef 8) #3
  %.not43 = icmp eq i32 %40, 0
  br i1 %.not43, label %.loopexit, label %30

._crit_edge:                                      ; preds = %30, %.preheader
  %41 = getelementptr inbounds nuw i8, ptr %1, i64 24
  %42 = load ptr, ptr %41, align 8, !tbaa !29
  %43 = tail call i32 @X509V3_extensions_print(ptr noundef %0, ptr noundef nonnull @.str.24, ptr noundef %42, i64 noundef %2, i32 noundef 4) #3
  %.not41 = icmp eq i32 %43, 0
  br i1 %.not41, label %.loopexit, label %44

44:                                               ; preds = %._crit_edge
  %.not42 = icmp eq ptr %5, null
  br i1 %.not42, label %.loopexit, label %45

45:                                               ; preds = %44
  %46 = getelementptr inbounds nuw i8, ptr %5, i64 16
  %47 = load ptr, ptr %46, align 8, !tbaa !30
  %48 = tail call i32 @X509_signature_print(ptr noundef %0, ptr noundef nonnull %5, ptr noundef %47) #3
  %49 = getelementptr inbounds nuw i8, ptr %5, i64 24
  %50 = load ptr, ptr %49, align 8, !tbaa !36
  %51 = tail call i32 @OPENSSL_sk_num(ptr noundef %50) #3
  %52 = icmp sgt i32 %51, 0
  br i1 %52, label %.lr.ph48, label %.loopexit

.lr.ph48:                                         ; preds = %45, %.lr.ph48
  %.146 = phi i32 [ %59, %.lr.ph48 ], [ 0, %45 ]
  %53 = load ptr, ptr %49, align 8, !tbaa !36
  %54 = tail call ptr @OPENSSL_sk_value(ptr noundef %53, i32 noundef %.146) #3
  %55 = tail call i32 @X509_print(ptr noundef %0, ptr noundef %54) #3
  %56 = load ptr, ptr %49, align 8, !tbaa !36
  %57 = tail call ptr @OPENSSL_sk_value(ptr noundef %56, i32 noundef %.146) #3
  %58 = tail call i32 @PEM_write_bio_X509(ptr noundef %0, ptr noundef %57) #3
  %59 = add nuw nsw i32 %.146, 1
  %60 = load ptr, ptr %49, align 8, !tbaa !36
  %61 = tail call i32 @OPENSSL_sk_num(ptr noundef %60) #3
  %62 = icmp slt i32 %59, %61
  br i1 %62, label %.lr.ph48, label %.loopexit, !llvm.loop !37

.loopexit:                                        ; preds = %.lr.ph, %.lr.ph48, %45, %3, %8, %17, %23, %._crit_edge, %44
  %.0 = phi i32 [ 1, %44 ], [ 0, %._crit_edge ], [ 0, %23 ], [ 0, %17 ], [ 0, %8 ], [ 0, %3 ], [ 1, %45 ], [ 1, %.lr.ph48 ], [ 0, %.lr.ph ]
  ret i32 %.0
}